; Function Attrs: nofree nounwind uwtable
define dso_local void @TouchSocketFiles() local_unnamed_addr #9 {
  %1 = load ptr, ptr @sock_paths, align 8
  %2 = getelementptr inbounds nuw i8, ptr %1, i64 4
  %.not = icmp eq ptr %1, null
  br i1 %.not, label %._crit_edge, label %.lr.ph

.lr.ph:                                           ; preds = %0
  %3 = getelementptr inbounds nuw i8, ptr %1, i64 16
  %4 = load i32, ptr %2, align 4
  %5 = icmp sgt i32 %4, 0
  br i1 %5, label %.lr.ph13, label %._crit_edge

._crit_edge:                                      ; preds = %.lr.ph13, %.lr.ph, %0
  ret void

.lr.ph13:                                         ; preds = %.lr.ph, %.lr.ph13
  %indvars.iv = phi i64 [ %indvars.iv.next, %.lr.ph13 ], [ 0, %.lr.ph ]
  %6 = load ptr, ptr %3, align 8
  %7 = getelementptr inbounds nuw %union.ListCell, ptr %6, i64 %indvars.iv
  %8 = load ptr, ptr %7, align 8
  %9 = tail call i32 @utime(ptr noundef %8, ptr noundef null) #21
  %indvars.iv.next = add nuw nsw i64 %indvars.iv, 1
  %10 = load i32, ptr %2, align 4
  %11 = sext i32 %10 to i64
  %12 = icmp slt i64 %indvars.iv.next, %11
  br i1 %12, label %.lr.ph13, label %._crit_edge
}